; Function Attrs: mustprogress nounwind uwtable
define internal void @"_ZNSt17_Function_handlerIFvPN4llvm6SDNodeES2_EZNS0_16SelectionDAGISel16SelectCodeCommonES2_PKhjE3$_0E9_M_invokeERKSt9_Any_dataOS2_SC_"(ptr noundef nonnull readonly align 8 captures(none) dereferenceable(16) %0, ptr noundef nonnull readonly align 8 captures(none) dereferenceable(8) %1, ptr nonnull readnone align 8 captures(none) %2) #0 align 2 {
  %.val = load ptr, ptr %1, align 8
  %4 = load ptr, ptr %0, align 8
  %5 = getelementptr inbounds nuw i8, ptr %4, i64 64
  %6 = load ptr, ptr %5, align 8
  tail call void @_ZN4llvm12SelectionDAG16salvageDebugInfoERNS_6SDNodeE(ptr noundef nonnull align 8 dereferenceable(904) %6, ptr noundef nonnull align 8 dereferenceable(88) %.val) #29
  %7 = getelementptr inbounds nuw i8, ptr %0, i64 8
  %8 = load ptr, ptr %7, align 8
  tail call void @_ZN4llvm5eraseINS_11SmallVectorIPNS_6SDNodeELj3EEES3_EEvRT_T0_(ptr noundef nonnull align 8 dereferenceable(40) %8, ptr noundef nonnull %.val)
  ret void
}